; Function Attrs: mustprogress nounwind uwtable
define void @_ZN3gmx26SelectionParserSymbolTableD2Ev(ptr nocapture noundef nonnull align 8 dereferenceable(8) %0) unnamed_addr #2 align 2 personality ptr @__gxx_personality_v0 {
  %2 = load ptr, ptr %0, align 8
  %.not.i = icmp eq ptr %2, null
  br i1 %.not.i, label %_ZNSt10unique_ptrIN3gmx26SelectionParserSymbolTable4ImplESt14default_deleteIS2_EED2Ev.exit, label %3

3:                                                ; preds = %1
  %4 = getelementptr inbounds i8, ptr %2, i64 16
  %5 = load ptr, ptr %4, align 8
  invoke void @_ZNSt8_Rb_treeINSt7__cxx1112basic_stringIcSt11char_traitsIcESaIcEEESt4pairIKS5_St10unique_ptrIN3gmx21SelectionParserSymbolESt14default_deleteISA_EEESt10_Select1stISE_ESt4lessIS5_ESaISE_EE8_M_eraseEPSt13_Rb_tree_nodeISE_E(ptr noundef nonnull align 8 dereferenceable(48) %2, ptr noundef %5)
          to label %_ZNKSt14default_deleteIN3gmx26SelectionParserSymbolTable4ImplEEclEPS2_.exit.i unwind label %6

6:                                                ; preds = %3
  %7 = landingpad { ptr, i32 }
          catch ptr null
  %8 = extractvalue { ptr, i32 } %7, 0
  tail call void @__clang_call_terminate(ptr %8) #20
  unreachable

_ZNKSt14default_deleteIN3gmx26SelectionParserSymbolTable4ImplEEclEPS2_.exit.i: ; preds = %3
  tail call void @_ZdlPv(ptr noundef nonnull %2) #21
  br label %_ZNSt10unique_ptrIN3gmx26SelectionParserSymbolTable4ImplESt14default_deleteIS2_EED2Ev.exit

_ZNSt10unique_ptrIN3gmx26SelectionParserSymbolTable4ImplESt14default_deleteIS2_EED2Ev.exit: ; preds = %1, %_ZNKSt14default_deleteIN3gmx26SelectionParserSymbolTable4ImplEEclEPS2_.exit.i
  store ptr null, ptr %0, align 8
  ret void
}